; Function Attrs: nounwind sspstrong uwtable
define internal noalias noundef ptr @wait_getnameinfo(ptr noundef %0) #0 {
  %2 = getelementptr inbounds nuw i8, ptr %0, i64 72
  tail call void @rb_nativethread_lock_lock(ptr noundef nonnull %2) #21
  %3 = getelementptr inbounds nuw i8, ptr %0, i64 64
  %4 = getelementptr inbounds nuw i8, ptr %0, i64 60
  %5 = load i32, ptr %4, align 4, !tbaa !33
  %.not8 = icmp eq i32 %5, 0
  br i1 %.not8, label %.lr.ph, label %.critedge

.lr.ph:                                           ; preds = %1
  %6 = getelementptr inbounds nuw i8, ptr %0, i64 112
  br label %7

7:                                                ; preds = %.lr.ph, %9
  %8 = load i32, ptr %3, align 8, !tbaa !32
  %.not7 = icmp eq i32 %8, 0
  br i1 %.not7, label %9, label %.critedge

9:                                                ; preds = %7
  tail call void @rb_native_cond_wait(ptr noundef nonnull %6, ptr noundef nonnull %2) #21
  %10 = load i32, ptr %4, align 4, !tbaa !33
  %.not = icmp eq i32 %10, 0
  br i1 %.not, label %7, label %.critedge, !llvm.loop !38

.critedge:                                        ; preds = %7, %9, %1
  tail call void @rb_nativethread_lock_unlock(ptr noundef nonnull %2) #21
  ret ptr null
}